; Function Attrs: mustprogress nofree norecurse nounwind willreturn memory(readwrite, inaccessiblemem: none) uwtable
define noundef zeroext i1 @_ZNK5arrow9StopToken15IsStopRequestedEv(ptr noundef nonnull readonly align 8 captures(none) dereferenceable(16) %0) local_unnamed_addr #3 align 2 {
  %2 = load ptr, ptr %0, align 8, !tbaa !23
  %.not = icmp eq ptr %2, null
  br i1 %.not, label %6, label %3

3:                                                ; preds = %1
  %4 = load atomic i32, ptr %2 seq_cst, align 4
  %5 = icmp ne i32 %4, 0
  br label %6

6:                                                ; preds = %1, %3
  %.0 = phi i1 [ %5, %3 ], [ false, %1 ]
  ret i1 %.0
}